target datalayout = "e-m:e-p270:32:32-p271:32:32-p272:64:64-i64:64-i128:128-f80:128-n8:16:32:64-S128"
target triple = "x86_64-pc-linux-gnu"

%struct.Vec_Int_t_ = type { i32, i32, ptr }
%struct.Gia_ResbMan_t_ = type { i32, i32, i32, i32, i32, i32, i32, i32, ptr, ptr, [2 x ptr], [2 x ptr], [2 x ptr], ptr, [2 x ptr], [2 x ptr], ptr, [2 x ptr], ptr, ptr, ptr }
%struct.Vec_Ptr_t_ = type { i32, i32, ptr }

@.str.4 = private unnamed_addr constant [2 x i8] c"\0A\00", align 1
@.str.29 = private unnamed_addr constant [22 x i8] c"Verification FAILED.\0A\00", align 1
@s_pResbMan = internal global ptr null, align 8
@.str.31 = private unnamed_addr constant [48 x i8] c"      Gain = %2d  Gates = %2d  __________  F = \00", align 1

; Function Attrs: inlinehint nounwind uwtable
define internal ptr @Vec_IntArray(ptr noundef %0) #2 {
  %2 = alloca ptr, align 8
  store ptr %0, ptr %2, align 8, !tbaa !12
  %3 = load ptr, ptr %2, align 8, !tbaa !12
  %4 = getelementptr inbounds nuw %struct.Vec_Int_t_, ptr %3, i32 0, i32 2
  %5 = load ptr, ptr %4, align 8, !tbaa !18
  ret ptr %5
}

; Function Attrs: inlinehint nounwind uwtable
define internal i32 @Vec_IntSize(ptr noundef %0) #2 {
  %2 = alloca ptr, align 8
  store ptr %0, ptr %2, align 8, !tbaa !12
  %3 = load ptr, ptr %2, align 8, !tbaa !12
  %4 = getelementptr inbounds nuw %struct.Vec_Int_t_, ptr %3, i32 0, i32 1
  %5 = load i32, ptr %4, align 4, !tbaa !14
  ret i32 %5
}

; Function Attrs: nounwind uwtable
define i32 @Abc_ResubComputeFunction(ptr noundef %0, i32 noundef %1, i32 noundef %2, i32 noundef %3, i32 noundef %4, i32 noundef %5, i32 noundef %6, i32 noundef %7, i32 noundef %8, ptr noundef %9) #0 {
  %11 = alloca ptr, align 8
  %12 = alloca i32, align 4
  %13 = alloca i32, align 4
  %14 = alloca i32, align 4
  %15 = alloca i32, align 4
  %16 = alloca i32, align 4
  %17 = alloca i32, align 4
  %18 = alloca i32, align 4
  %19 = alloca i32, align 4
  %20 = alloca ptr, align 8
  %21 = alloca %struct.Vec_Ptr_t_, align 8
  %22 = alloca i32, align 4
  store ptr %0, ptr %11, align 8, !tbaa !99
  store i32 %1, ptr %12, align 4, !tbaa !10
  store i32 %2, ptr %13, align 4, !tbaa !10
  store i32 %3, ptr %14, align 4, !tbaa !10
  store i32 %4, ptr %15, align 4, !tbaa !10
  store i32 %5, ptr %16, align 4, !tbaa !10
  store i32 %6, ptr %17, align 4, !tbaa !10
  store i32 %7, ptr %18, align 4, !tbaa !10
  store i32 %8, ptr %19, align 4, !tbaa !10
  store ptr %9, ptr %20, align 8, !tbaa !208
  call void @llvm.lifetime.start.p0(i64 16, ptr %21) #14
  %23 = getelementptr inbounds nuw %struct.Vec_Ptr_t_, ptr %21, i32 0, i32 0
  %24 = load i32, ptr %12, align 4, !tbaa !10
  store i32 %24, ptr %23, align 8, !tbaa !83
  %25 = getelementptr inbounds nuw %struct.Vec_Ptr_t_, ptr %21, i32 0, i32 1
  %26 = load i32, ptr %12, align 4, !tbaa !10
  store i32 %26, ptr %25, align 4, !tbaa !81
  %27 = getelementptr inbounds nuw %struct.Vec_Ptr_t_, ptr %21, i32 0, i32 2
  %28 = load ptr, ptr %11, align 8, !tbaa !99
  store ptr %28, ptr %27, align 8, !tbaa !84
  %29 = load ptr, ptr @s_pResbMan, align 8, !tbaa !67
  %30 = load i32, ptr %13, align 4, !tbaa !10
  %31 = load i32, ptr %14, align 4, !tbaa !10
  %32 = load i32, ptr %15, align 4, !tbaa !10
  %33 = load i32, ptr %16, align 4, !tbaa !10
  %34 = load i32, ptr %17, align 4, !tbaa !10
  %35 = load i32, ptr %18, align 4, !tbaa !10
  %36 = load i32, ptr %19, align 4, !tbaa !10
  %37 = icmp eq i32 %36, 2
  %38 = zext i1 %37 to i32
  call void @Gia_ManResubPerform(ptr noundef %29, ptr noundef %21, i32 noundef %30, i32 noundef %31, i32 noundef %32, i32 noundef %33, i32 noundef %34, i32 noundef %35, i32 noundef %38, i32 noundef 0)
  %39 = load i32, ptr %19, align 4, !tbaa !10
  %40 = icmp ne i32 %39, 0
  br i1 %40, label %41, label %63

41:                                               ; preds = %10
  call void @llvm.lifetime.start.p0(i64 4, ptr %22) #14
  %42 = load ptr, ptr @s_pResbMan, align 8, !tbaa !67
  %43 = getelementptr inbounds nuw %struct.Gia_ResbMan_t_, ptr %42, i32 0, i32 9
  %44 = load ptr, ptr %43, align 8, !tbaa !74
  %45 = call i32 @Vec_IntSize(ptr noundef %44)
  %46 = sdiv i32 %45, 2
  store i32 %46, ptr %22, align 4, !tbaa !10
  %47 = load i32, ptr %22, align 4, !tbaa !10
  %48 = icmp ne i32 %47, 0
  br i1 %48, label %49, label %62

49:                                               ; preds = %41
  %50 = load i32, ptr %14, align 4, !tbaa !10
  %51 = add nsw i32 %50, 1
  %52 = load i32, ptr %22, align 4, !tbaa !10
  %53 = sub nsw i32 %51, %52
  %54 = load i32, ptr %22, align 4, !tbaa !10
  %55 = call i32 (ptr, ...) @printf(ptr noundef @.str.31, i32 noundef %53, i32 noundef %54)
  %56 = load ptr, ptr @s_pResbMan, align 8, !tbaa !67
  %57 = getelementptr inbounds nuw %struct.Gia_ResbMan_t_, ptr %56, i32 0, i32 9
  %58 = load ptr, ptr %57, align 8, !tbaa !74
  %59 = load i32, ptr %12, align 4, !tbaa !10
  %60 = call i32 @Gia_ManResubPrint(ptr noundef %58, i32 noundef %59)
  %61 = call i32 (ptr, ...) @printf(ptr noundef @.str.4)
  br label %62

62:                                               ; preds = %49, %41
  call void @llvm.lifetime.end.p0(i64 4, ptr %22) #14
  br label %63

63:                                               ; preds = %62, %10
  %64 = load i32, ptr %18, align 4, !tbaa !10
  %65 = icmp ne i32 %64, 0
  br i1 %65, label %66, label %78

66:                                               ; preds = %63
  %67 = load ptr, ptr @s_pResbMan, align 8, !tbaa !67
  %68 = call i32 @Gia_ManResubVerify(ptr noundef %67, ptr noundef null)
  %69 = icmp ne i32 %68, 0
  br i1 %69, label %77, label %70

70:                                               ; preds = %66
  %71 = load ptr, ptr @s_pResbMan, align 8, !tbaa !67
  %72 = getelementptr inbounds nuw %struct.Gia_ResbMan_t_, ptr %71, i32 0, i32 9
  %73 = load ptr, ptr %72, align 8, !tbaa !74
  %74 = load i32, ptr %12, align 4, !tbaa !10
  %75 = call i32 @Gia_ManResubPrint(ptr noundef %73, i32 noundef %74)
  %76 = call i32 (ptr, ...) @printf(ptr noundef @.str.29)
  br label %77

77:                                               ; preds = %70, %66
  br label %78

78:                                               ; preds = %77, %63
  %79 = load ptr, ptr @s_pResbMan, align 8, !tbaa !67
  %80 = getelementptr inbounds nuw %struct.Gia_ResbMan_t_, ptr %79, i32 0, i32 9
  %81 = load ptr, ptr %80, align 8, !tbaa !74
  %82 = call ptr @Vec_IntArray(ptr noundef %81)
  %83 = load ptr, ptr %20, align 8, !tbaa !208
  store ptr %82, ptr %83, align 8, !tbaa !61
  %84 = load ptr, ptr @s_pResbMan, align 8, !tbaa !67
  %85 = getelementptr inbounds nuw %struct.Gia_ResbMan_t_, ptr %84, i32 0, i32 9
  %86 = load ptr, ptr %85, align 8, !tbaa !74
  %87 = call i32 @Vec_IntSize(ptr noundef %86)
  call void @llvm.lifetime.end.p0(i64 16, ptr %21) #14
  ret i32 %87
}