; Function Attrs: nounwind uwtable
define i32 @Abc_ResubComputeFunction(ptr noundef %0, i32 noundef %1, i32 noundef %2, i32 noundef %3, i32 noundef %4, i32 noundef %5, i32 noundef %6, i32 noundef %7, i32 noundef %8, ptr noundef writeonly captures(none) initializes((0, 8)) %9) local_unnamed_addr #0 {
  %11 = alloca %struct.Vec_Ptr_t_, align 8
  call void @llvm.lifetime.start.p0(i64 16, ptr nonnull %11) #32
  store i32 %1, ptr %11, align 8, !tbaa !75
  %12 = getelementptr inbounds nuw i8, ptr %11, i64 4
  store i32 %1, ptr %12, align 4, !tbaa !73
  %13 = getelementptr inbounds nuw i8, ptr %11, i64 8
  store ptr %0, ptr %13, align 8, !tbaa !76
  %14 = load ptr, ptr @s_pResbMan, align 8, !tbaa !184
  %15 = icmp eq i32 %8, 2
  %16 = zext i1 %15 to i32
  call void @Gia_ManResubPerform(ptr noundef %14, ptr noundef nonnull %11, i32 noundef %2, i32 noundef %3, i32 noundef %4, i32 noundef %5, i32 noundef %6, i32 noundef %7, i32 noundef %16, i32 noundef 0)
  %.not = icmp eq i32 %8, 0
  %.pre24.pre25 = load ptr, ptr @s_pResbMan, align 8, !tbaa !184
  br i1 %.not, label %30, label %17

17:                                               ; preds = %10
  %18 = getelementptr inbounds nuw i8, ptr %.pre24.pre25, i64 40
  %19 = load ptr, ptr %18, align 8, !tbaa !72
  %20 = getelementptr i8, ptr %19, i64 4
  %.val21 = load i32, ptr %20, align 4, !tbaa !28
  %.off = add i32 %.val21, 1
  %.not18 = icmp ult i32 %.off, 3
  br i1 %.not18, label %30, label %21

21:                                               ; preds = %17
  %22 = sdiv i32 %.val21, 2
  %23 = add nsw i32 %3, 1
  %24 = sub i32 %23, %22
  %25 = tail call i32 (ptr, ...) @printf(ptr noundef nonnull dereferenceable(1) @.str.31, i32 noundef %24, i32 noundef %22)
  %26 = load ptr, ptr @s_pResbMan, align 8, !tbaa !184
  %27 = getelementptr inbounds nuw i8, ptr %26, i64 40
  %28 = load ptr, ptr %27, align 8, !tbaa !72
  %29 = tail call i32 @Gia_ManResubPrint(ptr noundef %28, i32 noundef %1)
  %putchar = tail call i32 @putchar(i32 10)
  %.pre24.pre = load ptr, ptr @s_pResbMan, align 8, !tbaa !184
  br label %30

30:                                               ; preds = %17, %21, %10
  %.pre24 = phi ptr [ %.pre24.pre25, %17 ], [ %.pre24.pre, %21 ], [ %.pre24.pre25, %10 ]
  %.not19 = icmp eq i32 %7, 0
  br i1 %.not19, label %37, label %31

31:                                               ; preds = %30
  %32 = tail call i32 @Gia_ManResubVerify(ptr noundef %.pre24, ptr noundef null)
  %.not20 = icmp eq i32 %32, 0
  %.pre23 = load ptr, ptr @s_pResbMan, align 8, !tbaa !184
  br i1 %.not20, label %33, label %37

33:                                               ; preds = %31
  %34 = getelementptr inbounds nuw i8, ptr %.pre23, i64 40
  %35 = load ptr, ptr %34, align 8, !tbaa !72
  %36 = tail call i32 @Gia_ManResubPrint(ptr noundef %35, i32 noundef %1)
  %puts = tail call i32 @puts(ptr nonnull dereferenceable(1) @str.1)
  %.pre = load ptr, ptr @s_pResbMan, align 8, !tbaa !184
  br label %37

37:                                               ; preds = %31, %33, %30
  %38 = phi ptr [ %.pre23, %31 ], [ %.pre, %33 ], [ %.pre24, %30 ]
  %39 = getelementptr inbounds nuw i8, ptr %38, i64 40
  %40 = load ptr, ptr %39, align 8, !tbaa !72
  %41 = getelementptr i8, ptr %40, i64 8
  %.val22 = load ptr, ptr %41, align 8, !tbaa !30
  store ptr %.val22, ptr %9, align 8, !tbaa !59
  %42 = getelementptr i8, ptr %40, i64 4
  %.val = load i32, ptr %42, align 4, !tbaa !28
  call void @llvm.lifetime.end.p0(i64 16, ptr nonnull %11) #32
  ret i32 %.val
}